(lp0
(S'medium'
p1
I12
S'noor'
p2
I0
tp3
a(S'medium'
p4
I12
S'noor'
p5
I1
tp6
a(S'medium'
p7
I12
S'noor'
p8
I2
tp9
a(S'large'
p10
I12
S'noor'
p11
I0
tp12
a(S'large'
p13
I12
S'noor'
p14
I1
tp15
a(S'large'
p16
I12
S'noor'
p17
I2
tp18
a.